target datalayout = "e-m:e-p270:32:32-p271:32:32-p272:64:64-i64:64-i128:128-f80:128-n8:16:32:64-S128"
target triple = "x86_64-pc-linux-gnu"

%"struct.std::nothrow_t" = type { i8 }

@_ZSt7nothrow = external global %"struct.std::nothrow_t", align 1

; Function Attrs: mustprogress uwtable
define ptr @zmq_poller_new() #1 personality ptr @__gxx_personality_v0 {
  %1 = alloca ptr, align 8
  %2 = alloca i1, align 1
  %3 = alloca ptr, align 8
  %4 = alloca i32, align 4
  call void @llvm.lifetime.start.p0(i64 8, ptr %1) #20
  %5 = call noalias noundef ptr @_ZnwmRKSt9nothrow_t(i64 noundef 56, ptr noundef nonnull align 1 dereferenceable(1) @_ZSt7nothrow) #21
  %6 = icmp eq ptr %5, null
  store i1 false, ptr %2, align 1
  br i1 %6, label %9, label %7

7:                                                ; preds = %0
  store i1 true, ptr %2, align 1
  invoke void @_ZN3zmq15socket_poller_tC1Ev(ptr noundef nonnull align 8 dereferenceable(56) %5)
          to label %8 unwind label %15

8:                                                ; preds = %7
  br label %9

9:                                                ; preds = %8, %0
  %10 = phi ptr [ %5, %8 ], [ null, %0 ]
  store ptr %10, ptr %1, align 8, !tbaa !108
  %11 = load ptr, ptr %1, align 8, !tbaa !108
  %12 = icmp ne ptr %11, null
  br i1 %12, label %22, label %13

13:                                               ; preds = %9
  %14 = call ptr @__errno_location() #19
  store i32 12, ptr %14, align 4, !tbaa !8
  br label %22

15:                                               ; preds = %7
  %16 = landingpad { ptr, i32 }
          cleanup
  %17 = extractvalue { ptr, i32 } %16, 0
  store ptr %17, ptr %3, align 8
  %18 = extractvalue { ptr, i32 } %16, 1
  store i32 %18, ptr %4, align 4
  %19 = load i1, ptr %2, align 1
  br i1 %19, label %20, label %21

20:                                               ; preds = %15
  call void @_ZdlPvRKSt9nothrow_t(ptr noundef %5, ptr noundef nonnull align 1 dereferenceable(1) @_ZSt7nothrow) #22
  br label %21

21:                                               ; preds = %20, %15
  call void @llvm.lifetime.end.p0(i64 8, ptr %1) #20
  br label %24

22:                                               ; preds = %13, %9
  %23 = load ptr, ptr %1, align 8, !tbaa !108
  call void @llvm.lifetime.end.p0(i64 8, ptr %1) #20
  ret ptr %23

24:                                               ; preds = %21
  %25 = load ptr, ptr %3, align 8
  %26 = load i32, ptr %4, align 4
  %27 = insertvalue { ptr, i32 } poison, ptr %25, 0
  %28 = insertvalue { ptr, i32 } %27, i32 %26, 1
  resume { ptr, i32 } %28
}