; Function Attrs: mustprogress uwtable
define noundef ptr @zmq_poller_new() local_unnamed_addr #1 personality ptr @__gxx_personality_v0 {
  %1 = tail call noalias noundef dereferenceable_or_null(56) ptr @_ZnwmRKSt9nothrow_t(i64 noundef 56, ptr noundef nonnull align 1 dereferenceable(1) @_ZSt7nothrow) #21
  %2 = icmp eq ptr %1, null
  br i1 %2, label %4, label %3

3:                                                ; preds = %0
  invoke void @_ZN3zmq15socket_poller_tC1Ev(ptr noundef nonnull align 8 dereferenceable(56) %1)
          to label %8 unwind label %6

4:                                                ; preds = %0
  %5 = tail call ptr @__errno_location() #20
  store i32 12, ptr %5, align 4, !tbaa !3
  br label %8

6:                                                ; preds = %3
  %7 = landingpad { ptr, i32 }
          cleanup
  tail call void @_ZdlPvRKSt9nothrow_t(ptr noundef nonnull %1, ptr noundef nonnull align 1 dereferenceable(1) @_ZSt7nothrow) #23
  resume { ptr, i32 } %7

8:                                                ; preds = %3, %4
  ret ptr %1
}